#include <math.h>
#include <stdio.h>
#include <stdlib.h>
#include <string.h>

int main()
{
	int t,i,l,j,m=0;
	char c[100000],a[26];
	scanf("%d",&t);
	for(i=0;i<t;i++)
	{
		m=0;
		scanf("%s",c);
		l=strlen(c);
		for(j=0;j<26;j++)
			a[j]=0;
		for(j=0;j<l;j++)
		{
			a[c[j] - 'a'] = a[c[j] - 'a'] + 1;
			}
		
		for(j=0;j<l;j++)
		{
			if(a[(c[j]-'a')]==1)
			{
				printf("%c\n",c[j]);
				m++;
				break;
			}
		}
		if(m==0)
			printf("no\n");
	}
}