; ModuleID = 'source-C-CXX/36/152.c'
source_filename = "source-C-CXX/36/152.c"
target datalayout = "e-m:e-p270:32:32-p271:32:32-p272:64:64-i64:64-f80:128-n8:16:32:64-S128"
target triple = "x86_64-pc-linux-gnu"

@.str = private unnamed_addr constant [3 x i8] c"%d\00", align 1
@.str.1 = private unnamed_addr constant [3 x i8] c"%s\00", align 1
@.str.2 = private unnamed_addr constant [4 x i8] c"%c\0A\00", align 1
@str = private unnamed_addr constant [3 x i8] c"no\00", align 1

; Function Attrs: nofree nounwind sspstrong uwtable
define dso_local i32 @main() local_unnamed_addr #0 {
  %1 = alloca i32, align 4
  %2 = alloca [100000 x i8], align 16
  %3 = alloca [26 x i8], align 16
  %4 = getelementptr inbounds [26 x i8], [26 x i8]* %3, i64 0, i64 0
  %5 = bitcast i32* %1 to i8*
  call void @llvm.lifetime.start.p0i8(i64 4, i8* nonnull %5) #6
  %6 = getelementptr inbounds [100000 x i8], [100000 x i8]* %2, i64 0, i64 0
  call void @llvm.lifetime.start.p0i8(i64 100000, i8* nonnull %6) #6
  %7 = getelementptr inbounds [26 x i8], [26 x i8]* %3, i64 0, i64 0
  call void @llvm.lifetime.start.p0i8(i64 26, i8* nonnull %7) #6
  %8 = call i32 (i8*, ...) @__isoc99_scanf(i8* getelementptr inbounds ([3 x i8], [3 x i8]* @.str, i64 0, i64 0), i32* nonnull %1)
  %9 = load i32, i32* %1, align 4, !tbaa !5
  %10 = icmp sgt i32 %9, 0
  br i1 %10, label %11, label %79

11:                                               ; preds = %0, %75
  %12 = phi i32 [ %76, %75 ], [ 0, %0 ]
  %13 = call i32 (i8*, ...) @__isoc99_scanf(i8* getelementptr inbounds ([3 x i8], [3 x i8]* @.str.1, i64 0, i64 0), i8* nonnull %6)
  %14 = call i64 @strlen(i8* noundef nonnull %6) #7
  call void @llvm.memset.p0i8.i64(i8* noundef nonnull align 16 dereferenceable(26) %4, i8 0, i64 26, i1 false)
  %15 = trunc i64 %14 to i32
  %16 = icmp sgt i32 %15, 0
  br i1 %16, label %17, label %73

17:                                               ; preds = %11
  %18 = and i64 %14, 4294967295
  %19 = and i64 %14, 1
  %20 = icmp eq i64 %18, 1
  br i1 %20, label %23, label %21

21:                                               ; preds = %17
  %22 = sub nsw i64 %18, %19
  br label %37

23:                                               ; preds = %37, %17
  %24 = phi i64 [ 0, %17 ], [ %55, %37 ]
  %25 = icmp eq i64 %19, 0
  br i1 %25, label %34, label %26

26:                                               ; preds = %23
  %27 = getelementptr inbounds [100000 x i8], [100000 x i8]* %2, i64 0, i64 %24
  %28 = load i8, i8* %27, align 1, !tbaa !9
  %29 = sext i8 %28 to i64
  %30 = add nsw i64 %29, -97
  %31 = getelementptr inbounds [26 x i8], [26 x i8]* %3, i64 0, i64 %30
  %32 = load i8, i8* %31, align 1, !tbaa !9
  %33 = add i8 %32, 1
  store i8 %33, i8* %31, align 1, !tbaa !9
  br label %34

34:                                               ; preds = %23, %26
  br i1 %16, label %35, label %73

35:                                               ; preds = %34
  %36 = and i64 %14, 4294967295
  br label %60

37:                                               ; preds = %37, %21
  %38 = phi i64 [ 0, %21 ], [ %55, %37 ]
  %39 = phi i64 [ %22, %21 ], [ %56, %37 ]
  %40 = getelementptr inbounds [100000 x i8], [100000 x i8]* %2, i64 0, i64 %38
  %41 = load i8, i8* %40, align 2, !tbaa !9
  %42 = sext i8 %41 to i64
  %43 = add nsw i64 %42, -97
  %44 = getelementptr inbounds [26 x i8], [26 x i8]* %3, i64 0, i64 %43
  %45 = load i8, i8* %44, align 1, !tbaa !9
  %46 = add i8 %45, 1
  store i8 %46, i8* %44, align 1, !tbaa !9
  %47 = or i64 %38, 1
  %48 = getelementptr inbounds [100000 x i8], [100000 x i8]* %2, i64 0, i64 %47
  %49 = load i8, i8* %48, align 1, !tbaa !9
  %50 = sext i8 %49 to i64
  %51 = add nsw i64 %50, -97
  %52 = getelementptr inbounds [26 x i8], [26 x i8]* %3, i64 0, i64 %51
  %53 = load i8, i8* %52, align 1, !tbaa !9
  %54 = add i8 %53, 1
  store i8 %54, i8* %52, align 1, !tbaa !9
  %55 = add nuw nsw i64 %38, 2
  %56 = add i64 %39, -2
  %57 = icmp eq i64 %56, 0
  br i1 %57, label %23, label %37, !llvm.loop !10

58:                                               ; preds = %60
  %59 = icmp eq i64 %69, %36
  br i1 %59, label %73, label %60, !llvm.loop !12

60:                                               ; preds = %35, %58
  %61 = phi i64 [ 0, %35 ], [ %69, %58 ]
  %62 = getelementptr inbounds [100000 x i8], [100000 x i8]* %2, i64 0, i64 %61
  %63 = load i8, i8* %62, align 1, !tbaa !9
  %64 = sext i8 %63 to i64
  %65 = add nsw i64 %64, -97
  %66 = getelementptr inbounds [26 x i8], [26 x i8]* %3, i64 0, i64 %65
  %67 = load i8, i8* %66, align 1, !tbaa !9
  %68 = icmp eq i8 %67, 1
  %69 = add nuw nsw i64 %61, 1
  br i1 %68, label %70, label %58

70:                                               ; preds = %60
  %71 = sext i8 %63 to i32
  %72 = call i32 (i8*, ...) @printf(i8* nonnull dereferenceable(1) getelementptr inbounds ([4 x i8], [4 x i8]* @.str.2, i64 0, i64 0), i32 %71)
  br label %75

73:                                               ; preds = %58, %11, %34
  %74 = call i32 @puts(i8* nonnull dereferenceable(1) getelementptr inbounds ([3 x i8], [3 x i8]* @str, i64 0, i64 0))
  br label %75

75:                                               ; preds = %70, %73
  %76 = add nuw nsw i32 %12, 1
  %77 = load i32, i32* %1, align 4, !tbaa !5
  %78 = icmp slt i32 %76, %77
  br i1 %78, label %11, label %79, !llvm.loop !13

79:                                               ; preds = %75, %0
  call void @llvm.lifetime.end.p0i8(i64 26, i8* nonnull %7) #6
  call void @llvm.lifetime.end.p0i8(i64 100000, i8* nonnull %6) #6
  call void @llvm.lifetime.end.p0i8(i64 4, i8* nonnull %5) #6
  ret i32 0
}

; Function Attrs: argmemonly mustprogress nofree nosync nounwind willreturn
declare void @llvm.lifetime.start.p0i8(i64 immarg, i8* nocapture) #1

; Function Attrs: nofree nounwind
declare noundef i32 @__isoc99_scanf(i8* nocapture noundef readonly, ...) local_unnamed_addr #2

; Function Attrs: argmemonly mustprogress nofree nounwind readonly willreturn
declare i64 @strlen(i8* nocapture) local_unnamed_addr #3

; Function Attrs: nofree nounwind
declare noundef i32 @printf(i8* nocapture noundef readonly, ...) local_unnamed_addr #2

; Function Attrs: argmemonly mustprogress nofree nosync nounwind willreturn
declare void @llvm.lifetime.end.p0i8(i64 immarg, i8* nocapture) #1

; Function Attrs: nofree nounwind
declare noundef i32 @puts(i8* nocapture noundef readonly) local_unnamed_addr #4

; Function Attrs: argmemonly nofree nounwind willreturn writeonly
declare void @llvm.memset.p0i8.i64(i8* nocapture writeonly, i8, i64, i1 immarg) #5


!llvm.module.flags = !{!0, !1, !2, !3}
!llvm.ident = !{!4}

!0 = !{i32 1, !"wchar_size", i32 4}
!1 = !{i32 7, !"PIC Level", i32 2}
!2 = !{i32 7, !"PIE Level", i32 2}
!3 = !{i32 7, !"uwtable", i32 1}
!4 = !{!"clang version 13.0.0"}
!5 = !{!6, !6, i64 0}
!6 = !{!"int", !7, i64 0}
!7 = !{!"omnipotent char", !8, i64 0}
!8 = !{!"Simple C/C++ TBAA"}
!9 = !{!7, !7, i64 0}
!10 = distinct !{!10, !11}
!11 = !{!"llvm.loop.mustprogress"}
!12 = distinct !{!12, !11}
!13 = distinct !{!13, !11}
